; ModuleID = '54/1835.c'
source_filename = "54/1835.c"
target datalayout = "e-m:e-p270:32:32-p271:32:32-p272:64:64-i64:64-f80:128-n8:16:32:64-S128"
target triple = "x86_64-pc-linux-gnu"

@.str = private unnamed_addr constant [6 x i8] c"%d %d\00", align 1
@.str.1 = private unnamed_addr constant [3 x i8] c"%d\00", align 1

; Function Attrs: noinline nounwind uwtable
define dso_local i32 @main() #0 {
  %1 = alloca i32, align 4
  %2 = alloca i32, align 4
  %3 = alloca i32, align 4
  %4 = alloca i32, align 4
  %5 = alloca i32, align 4
  %6 = alloca i32, align 4
  %7 = alloca i32, align 4
  %8 = alloca i32, align 4
  %9 = alloca float, align 4
  store i32 0, i32* %1, align 4
  store i32 1, i32* %3, align 4
  store i32 0, i32* %8, align 4
  %10 = call i32 (i8*, ...) @__isoc99_scanf(i8* getelementptr inbounds ([6 x i8], [6 x i8]* @.str, i64 0, i64 0), i32* %6, i32* %5)
  br label %11

11:                                               ; preds = %58, %0
  %12 = load i32, i32* %6, align 4
  %13 = load i32, i32* %3, align 4
  %14 = mul nsw i32 %12, %13
  %15 = load i32, i32* %5, align 4
  %16 = add nsw i32 %14, %15
  store i32 %16, i32* %4, align 4
  %17 = load i32, i32* %4, align 4
  %18 = sitofp i32 %17 to float
  store float %18, float* %9, align 4
  store i32 0, i32* %2, align 4
  br label %19

19:                                               ; preds = %52, %11
  %20 = load i32, i32* %2, align 4
  %21 = load i32, i32* %6, align 4
  %22 = sub nsw i32 %21, 1
  %23 = icmp slt i32 %20, %22
  br i1 %23, label %24, label %55

24:                                               ; preds = %19
  %25 = load float, float* %9, align 4
  %26 = load i32, i32* %6, align 4
  %27 = sub nsw i32 %26, 1
  %28 = sitofp i32 %27 to float
  %29 = fdiv float %25, %28
  %30 = load i32, i32* %4, align 4
  %31 = load i32, i32* %6, align 4
  %32 = sub nsw i32 %31, 1
  %33 = sdiv i32 %30, %32
  %34 = sitofp i32 %33 to float
  %35 = fcmp oeq float %29, %34
  br i1 %35, label %36, label %47

36:                                               ; preds = %24
  %37 = load i32, i32* %5, align 4
  %38 = load i32, i32* %6, align 4
  %39 = load i32, i32* %4, align 4
  %40 = mul nsw i32 %38, %39
  %41 = load i32, i32* %6, align 4
  %42 = sub nsw i32 %41, 1
  %43 = sdiv i32 %40, %42
  %44 = add nsw i32 %37, %43
  store i32 %44, i32* %7, align 4
  %45 = load i32, i32* %8, align 4
  %46 = add nsw i32 %45, 1
  store i32 %46, i32* %8, align 4
  br label %48

47:                                               ; preds = %24
  store i32 0, i32* %8, align 4
  br label %55

48:                                               ; preds = %36
  %49 = load i32, i32* %7, align 4
  store i32 %49, i32* %4, align 4
  %50 = load i32, i32* %4, align 4
  %51 = sitofp i32 %50 to float
  store float %51, float* %9, align 4
  br label %52

52:                                               ; preds = %48
  %53 = load i32, i32* %2, align 4
  %54 = add nsw i32 %53, 1
  store i32 %54, i32* %2, align 4
  br label %19

55:                                               ; preds = %47, %19
  %56 = load i32, i32* %3, align 4
  %57 = add nsw i32 %56, 1
  store i32 %57, i32* %3, align 4
  br label %58

58:                                               ; preds = %55
  %59 = load i32, i32* %8, align 4
  %60 = load i32, i32* %6, align 4
  %61 = sub nsw i32 %60, 1
  %62 = icmp slt i32 %59, %61
  br i1 %62, label %11, label %63

63:                                               ; preds = %58
  %64 = load float, float* %9, align 4
  %65 = fptosi float %64 to i32
  store i32 %65, i32* %4, align 4
  %66 = load i32, i32* %4, align 4
  %67 = call i32 (i8*, ...) @printf(i8* getelementptr inbounds ([3 x i8], [3 x i8]* @.str.1, i64 0, i64 0), i32 %66)
  ret i32 0
}

declare dso_local i32 @__isoc99_scanf(i8*, ...) #1

declare dso_local i32 @printf(i8*, ...) #1


!llvm.module.flags = !{!0}
!llvm.ident = !{!1}

!0 = !{i32 1, !"wchar_size", i32 4}
!1 = !{!"clang version 10.0.0-4ubuntu1 "}
